; Function Attrs: nounwind uwtable
define hidden void @lxb_html_parser_clean(ptr nocapture noundef %0) local_unnamed_addr #0 {
  %2 = getelementptr inbounds i8, ptr %0, i64 16
  tail call void @llvm.memset.p0.i64(ptr noundef nonnull align 8 dereferenceable(28) %2, i8 0, i64 28, i1 false)
  %3 = load ptr, ptr %0, align 8
  tail call void @lxb_html_tokenizer_clean(ptr noundef %3) #7
  %4 = getelementptr inbounds i8, ptr %0, i64 8
  %5 = load ptr, ptr %4, align 8
  tail call void @lxb_html_tree_clean(ptr noundef %5) #7
  ret void
}